target datalayout = "e-m:e-p270:32:32-p271:32:32-p272:64:64-i64:64-i128:128-f80:128-n8:16:32:64-S128"
target triple = "x86_64-pc-linux-gnu"

%struct.re_pattern_buffer = type { ptr, i32, i32, i32, i32, i32, i32, i32, i32, i32, i32, i32, i32, i32, ptr, ptr, ptr, ptr, i32, i32, i32, i32, i64, i64, i32, ptr, ptr, [256 x i8], ptr, ptr, i64, i64, i64, ptr }
%struct._OnigStackType = type { i32, i64, %union.anon }
%union.anon = type { %struct.anon }
%struct.anon = type { ptr, ptr, ptr, ptr }
%struct.OnigCacheOpcode = type { ptr, i64, i32, i64, i64, i32, ptr }
%struct.anon.0 = type { i32, ptr, i32 }
%struct.OnigRepeatRange = type { i32, i32 }

; Function Attrs: nounwind sspstrong uwtable
define internal i64 @bsearch_cache_opcodes(ptr noundef %0, i64 noundef %1, ptr noundef %2) #0 {
  %4 = alloca ptr, align 8
  %5 = alloca i64, align 8
  %6 = alloca ptr, align 8
  %7 = alloca i64, align 8
  %8 = alloca i64, align 8
  %9 = alloca i64, align 8
  store ptr %0, ptr %4, align 8, !tbaa !34
  store i64 %1, ptr %5, align 8, !tbaa !12
  store ptr %2, ptr %6, align 8, !tbaa !22
  call void @llvm.lifetime.start.p0(i64 8, ptr %7) #12
  store i64 0, ptr %7, align 8, !tbaa !12
  call void @llvm.lifetime.start.p0(i64 8, ptr %8) #12
  %10 = load i64, ptr %5, align 8, !tbaa !12
  %11 = sub i64 %10, 1
  store i64 %11, ptr %8, align 8, !tbaa !12
  call void @llvm.lifetime.start.p0(i64 8, ptr %9) #12
  store i64 0, ptr %9, align 8, !tbaa !12
  br label %12

12:                                               ; preds = %43, %3
  %13 = load i64, ptr %7, align 8, !tbaa !12
  %14 = load i64, ptr %8, align 8, !tbaa !12
  %15 = icmp sle i64 %13, %14
  br i1 %15, label %16, label %44

16:                                               ; preds = %12
  %17 = load i64, ptr %7, align 8, !tbaa !12
  %18 = load i64, ptr %8, align 8, !tbaa !12
  %19 = add i64 %17, %18
  %20 = sdiv i64 %19, 2
  store i64 %20, ptr %9, align 8, !tbaa !12
  %21 = load ptr, ptr %4, align 8, !tbaa !34
  %22 = load i64, ptr %9, align 8, !tbaa !12
  %23 = getelementptr %struct.OnigCacheOpcode, ptr %21, i64 %22
  %24 = getelementptr inbounds nuw %struct.OnigCacheOpcode, ptr %23, i32 0, i32 0
  %25 = load ptr, ptr %24, align 8, !tbaa !135
  %26 = load ptr, ptr %6, align 8, !tbaa !22
  %27 = icmp eq ptr %25, %26
  br i1 %27, label %28, label %29

28:                                               ; preds = %16
  br label %44

29:                                               ; preds = %16
  %30 = load ptr, ptr %4, align 8, !tbaa !34
  %31 = load i64, ptr %9, align 8, !tbaa !12
  %32 = getelementptr %struct.OnigCacheOpcode, ptr %30, i64 %31
  %33 = getelementptr inbounds nuw %struct.OnigCacheOpcode, ptr %32, i32 0, i32 0
  %34 = load ptr, ptr %33, align 8, !tbaa !135
  %35 = load ptr, ptr %6, align 8, !tbaa !22
  %36 = icmp ult ptr %34, %35
  br i1 %36, label %37, label %40

37:                                               ; preds = %29
  %38 = load i64, ptr %9, align 8, !tbaa !12
  %39 = add i64 %38, 1
  store i64 %39, ptr %7, align 8, !tbaa !12
  br label %43

40:                                               ; preds = %29
  %41 = load i64, ptr %9, align 8, !tbaa !12
  %42 = sub i64 %41, 1
  store i64 %42, ptr %8, align 8, !tbaa !12
  br label %43

43:                                               ; preds = %40, %37
  br label %12, !llvm.loop !147

44:                                               ; preds = %28, %12
  %45 = load i64, ptr %9, align 8, !tbaa !12
  call void @llvm.lifetime.end.p0(i64 8, ptr %9) #12
  call void @llvm.lifetime.end.p0(i64 8, ptr %8) #12
  call void @llvm.lifetime.end.p0(i64 8, ptr %7) #12
  ret i64 %45
}

; Function Attrs: nounwind sspstrong uwtable
define internal i64 @find_cache_point(ptr noundef %0, ptr noundef %1, i64 noundef %2, ptr noundef %3, ptr noundef %4, ptr noundef %5, ptr noundef %6) #0 {
  %8 = alloca i64, align 8
  %9 = alloca ptr, align 8
  %10 = alloca ptr, align 8
  %11 = alloca i64, align 8
  %12 = alloca ptr, align 8
  %13 = alloca ptr, align 8
  %14 = alloca ptr, align 8
  %15 = alloca ptr, align 8
  %16 = alloca i64, align 8
  %17 = alloca ptr, align 8
  %18 = alloca ptr, align 8
  %19 = alloca ptr, align 8
  %20 = alloca i32, align 4
  %21 = alloca i32, align 4
  %22 = alloca i64, align 8
  %23 = alloca i64, align 8
  %24 = alloca i64, align 8
  %25 = alloca i32, align 4
  store ptr %0, ptr %9, align 8, !tbaa !7
  store ptr %1, ptr %10, align 8, !tbaa !34
  store i64 %2, ptr %11, align 8, !tbaa !12
  store ptr %3, ptr %12, align 8, !tbaa !22
  store ptr %4, ptr %13, align 8, !tbaa !56
  store ptr %5, ptr %14, align 8, !tbaa !14
  store ptr %6, ptr %15, align 8, !tbaa !34
  call void @llvm.lifetime.start.p0(i64 8, ptr %16) #12
  call void @llvm.lifetime.start.p0(i64 8, ptr %17) #12
  call void @llvm.lifetime.start.p0(i64 8, ptr %18) #12
  call void @llvm.lifetime.start.p0(i64 8, ptr %19) #12
  call void @llvm.lifetime.start.p0(i64 4, ptr %20) #12
  store i32 0, ptr %20, align 4, !tbaa !26
  call void @llvm.lifetime.start.p0(i64 4, ptr %21) #12
  %26 = load ptr, ptr %12, align 8, !tbaa !22
  %27 = load i8, ptr %26, align 1, !tbaa !65
  %28 = zext i8 %27 to i32
  %29 = icmp eq i32 %28, 68
  br i1 %29, label %35, label %30

30:                                               ; preds = %7
  %31 = load ptr, ptr %12, align 8, !tbaa !22
  %32 = load i8, ptr %31, align 1, !tbaa !65
  %33 = zext i8 %32 to i32
  %34 = icmp eq i32 %33, 69
  br label %35

35:                                               ; preds = %30, %7
  %36 = phi i1 [ true, %7 ], [ %34, %30 ]
  %37 = zext i1 %36 to i32
  store i32 %37, ptr %21, align 4, !tbaa !26
  call void @llvm.lifetime.start.p0(i64 8, ptr %22) #12
  call void @llvm.lifetime.start.p0(i64 8, ptr %23) #12
  call void @llvm.lifetime.start.p0(i64 8, ptr %24) #12
  %38 = load ptr, ptr %10, align 8, !tbaa !34
  %39 = load i64, ptr %11, align 8, !tbaa !12
  %40 = load ptr, ptr %12, align 8, !tbaa !22
  %41 = call i64 @bsearch_cache_opcodes(ptr noundef %38, i64 noundef %39, ptr noundef %40)
  store i64 %41, ptr %16, align 8, !tbaa !12
  %42 = load i64, ptr %16, align 8, !tbaa !12
  %43 = icmp sle i64 0, %42
  br i1 %43, label %44, label %56

44:                                               ; preds = %35
  %45 = load i64, ptr %16, align 8, !tbaa !12
  %46 = load i64, ptr %11, align 8, !tbaa !12
  %47 = icmp slt i64 %45, %46
  br i1 %47, label %48, label %56

48:                                               ; preds = %44
  %49 = load ptr, ptr %10, align 8, !tbaa !34
  %50 = load i64, ptr %16, align 8, !tbaa !12
  %51 = getelementptr %struct.OnigCacheOpcode, ptr %49, i64 %50
  %52 = getelementptr inbounds nuw %struct.OnigCacheOpcode, ptr %51, i32 0, i32 0
  %53 = load ptr, ptr %52, align 8, !tbaa !135
  %54 = load ptr, ptr %12, align 8, !tbaa !22
  %55 = icmp eq ptr %53, %54
  br i1 %55, label %57, label %56

56:                                               ; preds = %48, %44, %35
  store i64 -1, ptr %8, align 8
  store i32 1, ptr %25, align 4
  br label %175

57:                                               ; preds = %48
  %58 = load ptr, ptr %10, align 8, !tbaa !34
  %59 = load i64, ptr %16, align 8, !tbaa !12
  %60 = getelementptr %struct.OnigCacheOpcode, ptr %58, i64 %59
  store ptr %60, ptr %17, align 8, !tbaa !34
  %61 = load ptr, ptr %10, align 8, !tbaa !34
  %62 = load i64, ptr %16, align 8, !tbaa !12
  %63 = getelementptr %struct.OnigCacheOpcode, ptr %61, i64 %62
  %64 = load ptr, ptr %15, align 8, !tbaa !34
  store ptr %63, ptr %64, align 8, !tbaa !34
  %65 = load ptr, ptr %17, align 8, !tbaa !34
  %66 = getelementptr inbounds nuw %struct.OnigCacheOpcode, ptr %65, i32 0, i32 1
  %67 = load i64, ptr %66, align 8, !tbaa !136
  store i64 %67, ptr %22, align 8, !tbaa !12
  %68 = load ptr, ptr %17, align 8, !tbaa !34
  %69 = getelementptr inbounds nuw %struct.OnigCacheOpcode, ptr %68, i32 0, i32 2
  %70 = load i32, ptr %69, align 8, !tbaa !137
  %71 = icmp eq i32 %70, -1
  br i1 %71, label %72, label %74

72:                                               ; preds = %57
  %73 = load i64, ptr %22, align 8, !tbaa !12
  store i64 %73, ptr %8, align 8
  store i32 1, ptr %25, align 4
  br label %175

74:                                               ; preds = %57
  %75 = load ptr, ptr %17, align 8, !tbaa !34
  %76 = getelementptr inbounds nuw %struct.OnigCacheOpcode, ptr %75, i32 0, i32 3
  %77 = load i64, ptr %76, align 8, !tbaa !138
  store i64 %77, ptr %23, align 8, !tbaa !12
  %78 = load ptr, ptr %17, align 8, !tbaa !34
  %79 = getelementptr inbounds nuw %struct.OnigCacheOpcode, ptr %78, i32 0, i32 4
  %80 = load i64, ptr %79, align 8, !tbaa !139
  store i64 %80, ptr %24, align 8, !tbaa !12
  %81 = load ptr, ptr %9, align 8, !tbaa !7
  %82 = getelementptr inbounds nuw %struct.re_pattern_buffer, ptr %81, i32 0, i32 14
  %83 = load ptr, ptr %82, align 8, !tbaa !106
  %84 = load ptr, ptr %17, align 8, !tbaa !34
  %85 = getelementptr inbounds nuw %struct.OnigCacheOpcode, ptr %84, i32 0, i32 2
  %86 = load i32, ptr %85, align 8, !tbaa !137
  %87 = sext i32 %86 to i64
  %88 = getelementptr %struct.OnigRepeatRange, ptr %83, i64 %87
  store ptr %88, ptr %18, align 8, !tbaa !34
  %89 = load ptr, ptr %13, align 8, !tbaa !56
  %90 = load ptr, ptr %14, align 8, !tbaa !14
  %91 = load ptr, ptr %17, align 8, !tbaa !34
  %92 = getelementptr inbounds nuw %struct.OnigCacheOpcode, ptr %91, i32 0, i32 2
  %93 = load i32, ptr %92, align 8, !tbaa !137
  %94 = sext i32 %93 to i64
  %95 = getelementptr i64, ptr %90, i64 %94
  %96 = load i64, ptr %95, align 8, !tbaa !12
  %97 = getelementptr %struct._OnigStackType, ptr %89, i64 %96
  store ptr %97, ptr %19, align 8, !tbaa !56
  %98 = load i32, ptr %21, align 4, !tbaa !26
  %99 = icmp ne i32 %98, 0
  br i1 %99, label %100, label %106

100:                                              ; preds = %74
  %101 = load ptr, ptr %19, align 8, !tbaa !56
  %102 = getelementptr inbounds nuw %struct._OnigStackType, ptr %101, i32 0, i32 2
  %103 = getelementptr inbounds nuw %struct.anon.0, ptr %102, i32 0, i32 0
  %104 = load i32, ptr %103, align 8, !tbaa !65
  %105 = sub i32 %104, 1
  br label %111

106:                                              ; preds = %74
  %107 = load ptr, ptr %19, align 8, !tbaa !56
  %108 = getelementptr inbounds nuw %struct._OnigStackType, ptr %107, i32 0, i32 2
  %109 = getelementptr inbounds nuw %struct.anon.0, ptr %108, i32 0, i32 0
  %110 = load i32, ptr %109, align 8, !tbaa !65
  br label %111

111:                                              ; preds = %106, %100
  %112 = phi i32 [ %105, %100 ], [ %110, %106 ]
  store i32 %112, ptr %20, align 4, !tbaa !26
  %113 = load i32, ptr %20, align 4, !tbaa !26
  %114 = load ptr, ptr %18, align 8, !tbaa !34
  %115 = getelementptr inbounds nuw %struct.OnigRepeatRange, ptr %114, i32 0, i32 0
  %116 = load i32, ptr %115, align 4, !tbaa !107
  %117 = icmp slt i32 %113, %116
  br i1 %117, label %118, label %127

118:                                              ; preds = %111
  %119 = load i64, ptr %23, align 8, !tbaa !12
  %120 = load i64, ptr %24, align 8, !tbaa !12
  %121 = load i32, ptr %20, align 4, !tbaa !26
  %122 = sext i32 %121 to i64
  %123 = mul i64 %120, %122
  %124 = add i64 %119, %123
  %125 = load i64, ptr %22, align 8, !tbaa !12
  %126 = add i64 %124, %125
  store i64 %126, ptr %8, align 8
  store i32 1, ptr %25, align 4
  br label %175

127:                                              ; preds = %111
  %128 = load ptr, ptr %18, align 8, !tbaa !34
  %129 = getelementptr inbounds nuw %struct.OnigRepeatRange, ptr %128, i32 0, i32 1
  %130 = load i32, ptr %129, align 4, !tbaa !109
  %131 = icmp eq i32 %130, 2147483647
  br i1 %131, label %132, label %152

132:                                              ; preds = %127
  %133 = load i64, ptr %23, align 8, !tbaa !12
  %134 = load i64, ptr %24, align 8, !tbaa !12
  %135 = load ptr, ptr %18, align 8, !tbaa !34
  %136 = getelementptr inbounds nuw %struct.OnigRepeatRange, ptr %135, i32 0, i32 0
  %137 = load i32, ptr %136, align 4, !tbaa !107
  %138 = load i32, ptr %21, align 4, !tbaa !26
  %139 = icmp ne i32 %138, 0
  %140 = select i1 %139, i32 1, i32 0
  %141 = sub i32 %137, %140
  %142 = sext i32 %141 to i64
  %143 = mul i64 %134, %142
  %144 = add i64 %133, %143
  %145 = load i32, ptr %21, align 4, !tbaa !26
  %146 = icmp ne i32 %145, 0
  %147 = select i1 %146, i32 0, i32 1
  %148 = sext i32 %147 to i64
  %149 = add i64 %144, %148
  %150 = load i64, ptr %22, align 8, !tbaa !12
  %151 = add i64 %149, %150
  store i64 %151, ptr %8, align 8
  store i32 1, ptr %25, align 4
  br label %175

152:                                              ; preds = %127
  %153 = load i64, ptr %23, align 8, !tbaa !12
  %154 = load i64, ptr %24, align 8, !tbaa !12
  %155 = load ptr, ptr %18, align 8, !tbaa !34
  %156 = getelementptr inbounds nuw %struct.OnigRepeatRange, ptr %155, i32 0, i32 0
  %157 = load i32, ptr %156, align 4, !tbaa !107
  %158 = sub i32 %157, 1
  %159 = sext i32 %158 to i64
  %160 = mul i64 %154, %159
  %161 = add i64 %153, %160
  %162 = load i64, ptr %24, align 8, !tbaa !12
  %163 = add i64 %162, 1
  %164 = load i32, ptr %20, align 4, !tbaa !26
  %165 = load ptr, ptr %18, align 8, !tbaa !34
  %166 = getelementptr inbounds nuw %struct.OnigRepeatRange, ptr %165, i32 0, i32 0
  %167 = load i32, ptr %166, align 4, !tbaa !107
  %168 = sub i32 %164, %167
  %169 = add i32 %168, 1
  %170 = sext i32 %169 to i64
  %171 = mul i64 %163, %170
  %172 = add i64 %161, %171
  %173 = load i64, ptr %22, align 8, !tbaa !12
  %174 = add i64 %172, %173
  store i64 %174, ptr %8, align 8
  store i32 1, ptr %25, align 4
  br label %175

175:                                              ; preds = %152, %132, %118, %72, %56
  call void @llvm.lifetime.end.p0(i64 8, ptr %24) #12
  call void @llvm.lifetime.end.p0(i64 8, ptr %23) #12
  call void @llvm.lifetime.end.p0(i64 8, ptr %22) #12
  call void @llvm.lifetime.end.p0(i64 4, ptr %21) #12
  call void @llvm.lifetime.end.p0(i64 4, ptr %20) #12
  call void @llvm.lifetime.end.p0(i64 8, ptr %19) #12
  call void @llvm.lifetime.end.p0(i64 8, ptr %18) #12
  call void @llvm.lifetime.end.p0(i64 8, ptr %17) #12
  call void @llvm.lifetime.end.p0(i64 8, ptr %16) #12
  %176 = load i64, ptr %8, align 8
  ret i64 %176
}