; Function Attrs: nofree norecurse nosync nounwind sspstrong memory(read, argmem: readwrite, inaccessiblemem: none) uwtable
define internal fastcc i64 @find_cache_point(ptr noundef readonly captures(none) %0, ptr noundef %1, i64 noundef %2, ptr noundef readonly captures(address) %3, ptr noundef readonly captures(none) %4, ptr noundef readonly captures(none) %5, ptr noundef nonnull writeonly captures(none) %6) unnamed_addr #16 {
  %8 = load i8, ptr %3, align 1, !tbaa !57
  %9 = and i8 %8, -2
  %spec.select = icmp eq i8 %9, 68
  %10 = add i64 %2, -1
  %.not19.i = icmp slt i64 %10, 0
  br i1 %.not19.i, label %bsearch_cache_opcodes.exit, label %.lr.ph.i

.lr.ph.i:                                         ; preds = %7, %16
  %.01321.i = phi i64 [ %.114.i, %16 ], [ %10, %7 ]
  %.01520.i = phi i64 [ %.116.i, %16 ], [ 0, %7 ]
  %11 = add i64 %.01520.i, %.01321.i
  %12 = sdiv i64 %11, 2
  %13 = getelementptr %struct.OnigCacheOpcode, ptr %1, i64 %12
  %14 = load ptr, ptr %13, align 8, !tbaa !157
  %15 = icmp eq ptr %14, %3
  br i1 %15, label %bsearch_cache_opcodes.exit, label %16

16:                                               ; preds = %.lr.ph.i
  %17 = icmp ult ptr %14, %3
  %18 = add nsw i64 %12, 1
  %19 = add nsw i64 %12, -1
  %.116.i = select i1 %17, i64 %18, i64 %.01520.i
  %.114.i = select i1 %17, i64 %.01321.i, i64 %19
  %.not.i = icmp sgt i64 %.116.i, %.114.i
  br i1 %.not.i, label %bsearch_cache_opcodes.exit, label %.lr.ph.i, !llvm.loop !158

bsearch_cache_opcodes.exit:                       ; preds = %.lr.ph.i, %16, %7
  %.1.i = phi i64 [ 0, %7 ], [ %12, %16 ], [ %12, %.lr.ph.i ]
  %20 = icmp sgt i64 %.1.i, -1
  %21 = icmp slt i64 %.1.i, %2
  %or.cond = and i1 %20, %21
  br i1 %or.cond, label %22, label %78

22:                                               ; preds = %bsearch_cache_opcodes.exit
  %23 = getelementptr %struct.OnigCacheOpcode, ptr %1, i64 %.1.i
  %24 = load ptr, ptr %23, align 8, !tbaa !157
  %25 = icmp eq ptr %24, %3
  br i1 %25, label %26, label %78

26:                                               ; preds = %22
  store ptr %23, ptr %6, align 8, !tbaa !76
  %27 = getelementptr inbounds nuw i8, ptr %23, i64 8
  %28 = load i64, ptr %27, align 8, !tbaa !159
  %29 = getelementptr inbounds nuw i8, ptr %23, i64 16
  %30 = load i32, ptr %29, align 8, !tbaa !160
  %31 = icmp eq i32 %30, -1
  br i1 %31, label %78, label %32

32:                                               ; preds = %26
  %33 = getelementptr inbounds nuw i8, ptr %23, i64 24
  %34 = load i64, ptr %33, align 8, !tbaa !161
  %35 = getelementptr inbounds nuw i8, ptr %23, i64 32
  %36 = load i64, ptr %35, align 8, !tbaa !162
  %37 = getelementptr inbounds nuw i8, ptr %0, i64 64
  %38 = load ptr, ptr %37, align 8, !tbaa !106
  %39 = sext i32 %30 to i64
  %40 = getelementptr %struct.OnigRepeatRange, ptr %38, i64 %39
  %41 = getelementptr i64, ptr %5, i64 %39
  %42 = load i64, ptr %41, align 8, !tbaa !19
  %43 = getelementptr %struct._OnigStackType, ptr %4, i64 %42, i32 2
  %44 = load i32, ptr %43, align 8, !tbaa !57
  %45 = sext i1 %spec.select to i32
  %46 = add i32 %44, %45
  %47 = load i32, ptr %40, align 4, !tbaa !107
  %48 = icmp slt i32 %46, %47
  br i1 %48, label %49, label %54

49:                                               ; preds = %32
  %50 = sext i32 %46 to i64
  %51 = mul i64 %36, %50
  %52 = add i64 %34, %28
  %53 = add i64 %52, %51
  br label %78

54:                                               ; preds = %32
  %55 = getelementptr inbounds nuw i8, ptr %40, i64 4
  %56 = load i32, ptr %55, align 4, !tbaa !109
  %57 = icmp eq i32 %56, 2147483647
  br i1 %57, label %58, label %66

58:                                               ; preds = %54
  %.neg = sext i1 %spec.select to i32
  %59 = add i32 %47, %.neg
  %60 = sext i32 %59 to i64
  %61 = mul i64 %36, %60
  %not. = xor i1 %spec.select, true
  %62 = zext i1 %not. to i64
  %63 = add i64 %28, %62
  %64 = add i64 %63, %34
  %65 = add i64 %64, %61
  br label %78

66:                                               ; preds = %54
  %67 = add i32 %47, -1
  %68 = sext i32 %67 to i64
  %69 = mul i64 %36, %68
  %70 = add i64 %36, 1
  %71 = add i32 %46, 1
  %72 = sub i32 %71, %47
  %73 = sext i32 %72 to i64
  %74 = mul i64 %70, %73
  %75 = add i64 %34, %28
  %76 = add i64 %75, %69
  %77 = add i64 %76, %74
  br label %78

78:                                               ; preds = %26, %bsearch_cache_opcodes.exit, %22, %66, %58, %49
  %.0 = phi i64 [ %53, %49 ], [ %65, %58 ], [ %77, %66 ], [ -1, %22 ], [ -1, %bsearch_cache_opcodes.exit ], [ %28, %26 ]
  ret i64 %.0
}